target datalayout = "e-m:e-p270:32:32-p271:32:32-p272:64:64-i64:64-i128:128-f80:128-n8:16:32:64-S128"
target triple = "x86_64-pc-linux-gnu"

%"class.boost::nowide::basic_stackstring" = type { [256 x i8], ptr }
%"class.boost::nowide::basic_stackstring.0" = type { [16 x i8], ptr }

; Function Attrs: mustprogress nounwind uwtable
define linkonce_odr hidden noundef zeroext i1 @_ZNK5boost6nowide17basic_stackstringIcwLm256EE17uses_stack_memoryEv(ptr noundef nonnull align 8 dereferenceable(264) %0) #3 comdat align 2 {
  %2 = alloca ptr, align 8
  store ptr %0, ptr %2, align 8, !tbaa !3
  %3 = load ptr, ptr %2, align 8
  %4 = getelementptr inbounds nuw %"class.boost::nowide::basic_stackstring", ptr %3, i32 0, i32 1
  %5 = load ptr, ptr %4, align 8, !tbaa !7
  %6 = getelementptr inbounds nuw %"class.boost::nowide::basic_stackstring", ptr %3, i32 0, i32 0
  %7 = getelementptr inbounds [256 x i8], ptr %6, i64 0, i64 0
  %8 = icmp eq ptr %5, %7
  ret i1 %8
}

; Function Attrs: mustprogress nounwind uwtable
define linkonce_odr hidden noundef zeroext i1 @_ZNK5boost6nowide17basic_stackstringIcwLm16EE17uses_stack_memoryEv(ptr noundef nonnull align 8 dereferenceable(24) %0) #3 comdat align 2 {
  %2 = alloca ptr, align 8
  store ptr %0, ptr %2, align 8, !tbaa !3
  %3 = load ptr, ptr %2, align 8
  %4 = getelementptr inbounds nuw %"class.boost::nowide::basic_stackstring.0", ptr %3, i32 0, i32 1
  %5 = load ptr, ptr %4, align 8, !tbaa !9
  %6 = getelementptr inbounds nuw %"class.boost::nowide::basic_stackstring.0", ptr %3, i32 0, i32 0
  %7 = getelementptr inbounds [16 x i8], ptr %6, i64 0, i64 0
  %8 = icmp eq ptr %5, %7
  ret i1 %8
}

; Function Attrs: mustprogress nounwind uwtable
define linkonce_odr hidden noundef ptr @_ZN5boost6nowide17basic_stackstringIcwLm16EE3getEv(ptr noundef nonnull align 8 dereferenceable(24) %0) #3 comdat align 2 {
  %2 = alloca ptr, align 8
  store ptr %0, ptr %2, align 8, !tbaa !3
  %3 = load ptr, ptr %2, align 8
  %4 = getelementptr inbounds nuw %"class.boost::nowide::basic_stackstring.0", ptr %3, i32 0, i32 1
  %5 = load ptr, ptr %4, align 8, !tbaa !9
  ret ptr %5
}

; Function Attrs: mustprogress nounwind uwtable
define linkonce_odr hidden noundef ptr @_ZN5boost6nowide17basic_stackstringIcwLm256EE3getEv(ptr noundef nonnull align 8 dereferenceable(264) %0) #3 comdat align 2 {
  %2 = alloca ptr, align 8
  store ptr %0, ptr %2, align 8, !tbaa !3
  %3 = load ptr, ptr %2, align 8
  %4 = getelementptr inbounds nuw %"class.boost::nowide::basic_stackstring", ptr %3, i32 0, i32 1
  %5 = load ptr, ptr %4, align 8, !tbaa !7
  ret ptr %5
}

; Function Attrs: mustprogress nounwind uwtable
define linkonce_odr hidden noundef i64 @_ZN5boost6nowide3utf6strlenIwEEmPKT_(ptr noundef %0) #3 comdat {
  %2 = alloca ptr, align 8
  %3 = alloca ptr, align 8
  store ptr %0, ptr %2, align 8, !tbaa !3
  call void @llvm.lifetime.start.p0(i64 8, ptr %3) #9
  %4 = load ptr, ptr %2, align 8, !tbaa !3
  store ptr %4, ptr %3, align 8, !tbaa !3
  br label %5

5:                                                ; preds = %9, %1
  %6 = load ptr, ptr %3, align 8, !tbaa !3
  %7 = load i32, ptr %6, align 4, !tbaa !15
  %8 = icmp ne i32 %7, 0
  br i1 %8, label %9, label %12

9:                                                ; preds = %5
  %10 = load ptr, ptr %3, align 8, !tbaa !3
  %11 = getelementptr inbounds nuw i32, ptr %10, i32 1
  store ptr %11, ptr %3, align 8, !tbaa !3
  br label %5, !llvm.loop !17

12:                                               ; preds = %5
  %13 = load ptr, ptr %3, align 8, !tbaa !3
  %14 = load ptr, ptr %2, align 8, !tbaa !3
  %15 = ptrtoint ptr %13 to i64
  %16 = ptrtoint ptr %14 to i64
  %17 = sub i64 %15, %16
  %18 = sdiv exact i64 %17, 4
  call void @llvm.lifetime.end.p0(i64 8, ptr %3) #9
  ret i64 %18
}

; Function Attrs: mustprogress uwtable
define linkonce_odr hidden void @_ZN5boost6nowide17basic_stackstringIcwLm256EE5clearEv(ptr noundef nonnull align 8 dereferenceable(264) %0) #0 comdat align 2 {
  %2 = alloca ptr, align 8
  store ptr %0, ptr %2, align 8, !tbaa !3
  %3 = load ptr, ptr %2, align 8
  %4 = call noundef zeroext i1 @_ZNK5boost6nowide17basic_stackstringIcwLm256EE17uses_stack_memoryEv(ptr noundef nonnull align 8 dereferenceable(264) %3)
  br i1 %4, label %11, label %5

5:                                                ; preds = %1
  %6 = getelementptr inbounds nuw %"class.boost::nowide::basic_stackstring", ptr %3, i32 0, i32 1
  %7 = load ptr, ptr %6, align 8, !tbaa !7
  %8 = icmp eq ptr %7, null
  br i1 %8, label %10, label %9

9:                                                ; preds = %5
  call void @_ZdaPv(ptr noundef %7) #12
  br label %10

10:                                               ; preds = %9, %5
  br label %11

11:                                               ; preds = %10, %1
  %12 = getelementptr inbounds nuw %"class.boost::nowide::basic_stackstring", ptr %3, i32 0, i32 1
  store ptr null, ptr %12, align 8, !tbaa !7
  ret void
}

; Function Attrs: noinline noreturn nounwind uwtable
define linkonce_odr hidden void @__clang_call_terminate(ptr noundef %0) #8 comdat {
  %2 = call ptr @__cxa_begin_catch(ptr %0) #9
  call void @_ZSt9terminatev() #10
  unreachable
}

; Function Attrs: mustprogress uwtable
define linkonce_odr hidden void @_ZN5boost6nowide17basic_stackstringIcwLm16EE5clearEv(ptr noundef nonnull align 8 dereferenceable(24) %0) #0 comdat align 2 {
  %2 = alloca ptr, align 8
  store ptr %0, ptr %2, align 8, !tbaa !3
  %3 = load ptr, ptr %2, align 8
  %4 = call noundef zeroext i1 @_ZNK5boost6nowide17basic_stackstringIcwLm16EE17uses_stack_memoryEv(ptr noundef nonnull align 8 dereferenceable(24) %3)
  br i1 %4, label %11, label %5

5:                                                ; preds = %1
  %6 = getelementptr inbounds nuw %"class.boost::nowide::basic_stackstring.0", ptr %3, i32 0, i32 1
  %7 = load ptr, ptr %6, align 8, !tbaa !9
  %8 = icmp eq ptr %7, null
  br i1 %8, label %10, label %9

9:                                                ; preds = %5
  call void @_ZdaPv(ptr noundef %7) #12
  br label %10

10:                                               ; preds = %9, %5
  br label %11

11:                                               ; preds = %10, %1
  %12 = getelementptr inbounds nuw %"class.boost::nowide::basic_stackstring.0", ptr %3, i32 0, i32 1
  store ptr null, ptr %12, align 8, !tbaa !9
  ret void
}

; Function Attrs: mustprogress uwtable
define linkonce_odr hidden noundef ptr @_ZN5boost6nowide17basic_stackstringIcwLm16EE7convertEPKw(ptr noundef nonnull align 8 dereferenceable(24) %0, ptr noundef %1) #0 comdat align 2 {
  %3 = alloca ptr, align 8
  %4 = alloca ptr, align 8
  %5 = alloca ptr, align 8
  store ptr %0, ptr %4, align 8, !tbaa !3
  store ptr %1, ptr %5, align 8, !tbaa !3
  %6 = load ptr, ptr %4, align 8
  %7 = load ptr, ptr %5, align 8, !tbaa !3
  %8 = icmp ne ptr %7, null
  br i1 %8, label %9, label %16

9:                                                ; preds = %2
  %10 = load ptr, ptr %5, align 8, !tbaa !3
  %11 = load ptr, ptr %5, align 8, !tbaa !3
  %12 = load ptr, ptr %5, align 8, !tbaa !3
  %13 = call noundef i64 @_ZN5boost6nowide3utf6strlenIwEEmPKT_(ptr noundef %12)
  %14 = getelementptr inbounds nuw i32, ptr %11, i64 %13
  %15 = call noundef ptr @_ZN5boost6nowide17basic_stackstringIcwLm16EE7convertEPKwS4_(ptr noundef nonnull align 8 dereferenceable(24) %6, ptr noundef %10, ptr noundef %14)
  store ptr %15, ptr %3, align 8
  br label %18

16:                                               ; preds = %2
  call void @_ZN5boost6nowide17basic_stackstringIcwLm16EE5clearEv(ptr noundef nonnull align 8 dereferenceable(24) %6)
  %17 = call noundef ptr @_ZN5boost6nowide17basic_stackstringIcwLm16EE3getEv(ptr noundef nonnull align 8 dereferenceable(24) %6)
  store ptr %17, ptr %3, align 8
  br label %18

18:                                               ; preds = %16, %9
  %19 = load ptr, ptr %3, align 8
  ret ptr %19
}

; Function Attrs: mustprogress uwtable
define linkonce_odr hidden noundef ptr @_ZN5boost6nowide17basic_stackstringIcwLm256EE7convertEPKw(ptr noundef nonnull align 8 dereferenceable(264) %0, ptr noundef %1) #0 comdat align 2 {
  %3 = alloca ptr, align 8
  %4 = alloca ptr, align 8
  %5 = alloca ptr, align 8
  store ptr %0, ptr %4, align 8, !tbaa !3
  store ptr %1, ptr %5, align 8, !tbaa !3
  %6 = load ptr, ptr %4, align 8
  %7 = load ptr, ptr %5, align 8, !tbaa !3
  %8 = icmp ne ptr %7, null
  br i1 %8, label %9, label %16

9:                                                ; preds = %2
  %10 = load ptr, ptr %5, align 8, !tbaa !3
  %11 = load ptr, ptr %5, align 8, !tbaa !3
  %12 = load ptr, ptr %5, align 8, !tbaa !3
  %13 = call noundef i64 @_ZN5boost6nowide3utf6strlenIwEEmPKT_(ptr noundef %12)
  %14 = getelementptr inbounds nuw i32, ptr %11, i64 %13
  %15 = call noundef ptr @_ZN5boost6nowide17basic_stackstringIcwLm256EE7convertEPKwS4_(ptr noundef nonnull align 8 dereferenceable(264) %6, ptr noundef %10, ptr noundef %14)
  store ptr %15, ptr %3, align 8
  br label %18

16:                                               ; preds = %2
  call void @_ZN5boost6nowide17basic_stackstringIcwLm256EE5clearEv(ptr noundef nonnull align 8 dereferenceable(264) %6)
  %17 = call noundef ptr @_ZN5boost6nowide17basic_stackstringIcwLm256EE3getEv(ptr noundef nonnull align 8 dereferenceable(264) %6)
  store ptr %17, ptr %3, align 8
  br label %18

18:                                               ; preds = %16, %9
  %19 = load ptr, ptr %3, align 8
  ret ptr %19
}

; Function Attrs: mustprogress nounwind uwtable
define linkonce_odr hidden void @_ZN5boost6nowide17basic_stackstringIcwLm256EED2Ev(ptr noundef nonnull align 8 dereferenceable(264) %0) unnamed_addr #3 comdat align 2 personality ptr @__gxx_personality_v0 {
  %2 = alloca ptr, align 8
  store ptr %0, ptr %2, align 8, !tbaa !3
  %3 = load ptr, ptr %2, align 8
  invoke void @_ZN5boost6nowide17basic_stackstringIcwLm256EE5clearEv(ptr noundef nonnull align 8 dereferenceable(264) %3)
          to label %4 unwind label %5

4:                                                ; preds = %1
  ret void

5:                                                ; preds = %1
  %6 = landingpad { ptr, i32 }
          catch ptr null
  %7 = extractvalue { ptr, i32 } %6, 0
  call void @__clang_call_terminate(ptr %7) #10
  unreachable
}

; Function Attrs: mustprogress nounwind uwtable
define linkonce_odr hidden void @_ZN5boost6nowide17basic_stackstringIcwLm16EED2Ev(ptr noundef nonnull align 8 dereferenceable(24) %0) unnamed_addr #3 comdat align 2 personality ptr @__gxx_personality_v0 {
  %2 = alloca ptr, align 8
  store ptr %0, ptr %2, align 8, !tbaa !3
  %3 = load ptr, ptr %2, align 8
  invoke void @_ZN5boost6nowide17basic_stackstringIcwLm16EE5clearEv(ptr noundef nonnull align 8 dereferenceable(24) %3)
          to label %4 unwind label %5

4:                                                ; preds = %1
  ret void

5:                                                ; preds = %1
  %6 = landingpad { ptr, i32 }
          catch ptr null
  %7 = extractvalue { ptr, i32 } %6, 0
  call void @__clang_call_terminate(ptr %7) #10
  unreachable
}

; Function Attrs: mustprogress nounwind uwtable
define linkonce_odr hidden noundef ptr @_ZNK5boost6nowide17basic_stackstringIcwLm16EE3getEv(ptr noundef nonnull align 8 dereferenceable(24) %0) #3 comdat align 2 {
  %2 = alloca ptr, align 8
  store ptr %0, ptr %2, align 8, !tbaa !3
  %3 = load ptr, ptr %2, align 8
  %4 = getelementptr inbounds nuw %"class.boost::nowide::basic_stackstring.0", ptr %3, i32 0, i32 1
  %5 = load ptr, ptr %4, align 8, !tbaa !9
  ret ptr %5
}

; Function Attrs: mustprogress nounwind uwtable
define linkonce_odr hidden noundef ptr @_ZNK5boost6nowide17basic_stackstringIcwLm256EE3getEv(ptr noundef nonnull align 8 dereferenceable(264) %0) #3 comdat align 2 {
  %2 = alloca ptr, align 8
  store ptr %0, ptr %2, align 8, !tbaa !3
  %3 = load ptr, ptr %2, align 8
  %4 = getelementptr inbounds nuw %"class.boost::nowide::basic_stackstring", ptr %3, i32 0, i32 1
  %5 = load ptr, ptr %4, align 8, !tbaa !7
  ret ptr %5
}

; Function Attrs: mustprogress uwtable
define linkonce_odr hidden void @_ZN5boost6nowide17basic_stackstringIcwLm16EEC2EPKw(ptr noundef nonnull align 8 dereferenceable(24) %0, ptr noundef %1) unnamed_addr #0 comdat align 2 {
  %3 = alloca ptr, align 8
  %4 = alloca ptr, align 8
  store ptr %0, ptr %3, align 8, !tbaa !3
  store ptr %1, ptr %4, align 8, !tbaa !3
  %5 = load ptr, ptr %3, align 8
  %6 = getelementptr inbounds nuw %"class.boost::nowide::basic_stackstring.0", ptr %5, i32 0, i32 1
  store ptr null, ptr %6, align 8, !tbaa !9
  %7 = load ptr, ptr %4, align 8, !tbaa !3
  %8 = call noundef ptr @_ZN5boost6nowide17basic_stackstringIcwLm16EE7convertEPKw(ptr noundef nonnull align 8 dereferenceable(24) %5, ptr noundef %7)
  ret void
}

; Function Attrs: mustprogress uwtable
define linkonce_odr hidden void @_ZN5boost6nowide17basic_stackstringIcwLm256EEC2EPKw(ptr noundef nonnull align 8 dereferenceable(264) %0, ptr noundef %1) unnamed_addr #0 comdat align 2 {
  %3 = alloca ptr, align 8
  %4 = alloca ptr, align 8
  store ptr %0, ptr %3, align 8, !tbaa !3
  store ptr %1, ptr %4, align 8, !tbaa !3
  %5 = load ptr, ptr %3, align 8
  %6 = getelementptr inbounds nuw %"class.boost::nowide::basic_stackstring", ptr %5, i32 0, i32 1
  store ptr null, ptr %6, align 8, !tbaa !7
  %7 = load ptr, ptr %4, align 8, !tbaa !3
  %8 = call noundef ptr @_ZN5boost6nowide17basic_stackstringIcwLm256EE7convertEPKw(ptr noundef nonnull align 8 dereferenceable(264) %5, ptr noundef %7)
  ret void
}

; Function Attrs: mustprogress uwtable
define noundef ptr @_ZN5boost6nowide6detail6wfopenEPKwS3_(ptr noundef %0, ptr noundef %1) #0 personality ptr @__gxx_personality_v0 {
  %3 = alloca ptr, align 8
  %4 = alloca ptr, align 8
  %5 = alloca %"class.boost::nowide::basic_stackstring", align 8
  %6 = alloca %"class.boost::nowide::basic_stackstring.0", align 8
  %7 = alloca ptr, align 8
  %8 = alloca i32, align 4
  store ptr %0, ptr %3, align 8, !tbaa !3
  store ptr %1, ptr %4, align 8, !tbaa !3
  call void @llvm.lifetime.start.p0(i64 264, ptr %5) #9
  %9 = load ptr, ptr %3, align 8, !tbaa !3
  call void @_ZN5boost6nowide17basic_stackstringIcwLm256EEC2EPKw(ptr noundef nonnull align 8 dereferenceable(264) %5, ptr noundef %9)
  call void @llvm.lifetime.start.p0(i64 24, ptr %6) #9
  %10 = load ptr, ptr %4, align 8, !tbaa !3
  invoke void @_ZN5boost6nowide17basic_stackstringIcwLm16EEC2EPKw(ptr noundef nonnull align 8 dereferenceable(24) %6, ptr noundef %10)
          to label %11 unwind label %18

11:                                               ; preds = %2
  %12 = invoke noundef ptr @_ZNK5boost6nowide17basic_stackstringIcwLm256EE3getEv(ptr noundef nonnull align 8 dereferenceable(264) %5)
          to label %13 unwind label %22

13:                                               ; preds = %11
  %14 = invoke noundef ptr @_ZNK5boost6nowide17basic_stackstringIcwLm16EE3getEv(ptr noundef nonnull align 8 dereferenceable(24) %6)
          to label %15 unwind label %22

15:                                               ; preds = %13
  %16 = invoke noalias ptr @fopen(ptr noundef %12, ptr noundef %14)
          to label %17 unwind label %22

17:                                               ; preds = %15
  call void @_ZN5boost6nowide17basic_stackstringIcwLm16EED2Ev(ptr noundef nonnull align 8 dereferenceable(24) %6) #9
  call void @llvm.lifetime.end.p0(i64 24, ptr %6) #9
  call void @_ZN5boost6nowide17basic_stackstringIcwLm256EED2Ev(ptr noundef nonnull align 8 dereferenceable(264) %5) #9
  call void @llvm.lifetime.end.p0(i64 264, ptr %5) #9
  ret ptr %16

18:                                               ; preds = %2
  %19 = landingpad { ptr, i32 }
          cleanup
  %20 = extractvalue { ptr, i32 } %19, 0
  store ptr %20, ptr %7, align 8
  %21 = extractvalue { ptr, i32 } %19, 1
  store i32 %21, ptr %8, align 4
  br label %26

22:                                               ; preds = %15, %13, %11
  %23 = landingpad { ptr, i32 }
          cleanup
  %24 = extractvalue { ptr, i32 } %23, 0
  store ptr %24, ptr %7, align 8
  %25 = extractvalue { ptr, i32 } %23, 1
  store i32 %25, ptr %8, align 4
  call void @_ZN5boost6nowide17basic_stackstringIcwLm16EED2Ev(ptr noundef nonnull align 8 dereferenceable(24) %6) #9
  br label %26

26:                                               ; preds = %22, %18
  call void @llvm.lifetime.end.p0(i64 24, ptr %6) #9
  call void @_ZN5boost6nowide17basic_stackstringIcwLm256EED2Ev(ptr noundef nonnull align 8 dereferenceable(264) %5) #9
  call void @llvm.lifetime.end.p0(i64 264, ptr %5) #9
  br label %27

27:                                               ; preds = %26
  %28 = load ptr, ptr %7, align 8
  %29 = load i32, ptr %8, align 4
  %30 = insertvalue { ptr, i32 } poison, ptr %28, 0
  %31 = insertvalue { ptr, i32 } %30, i32 %29, 1
  resume { ptr, i32 } %31
}