; Function Attrs: mustprogress uwtable
define noalias noundef ptr @_ZN5boost6nowide6detail6wfopenEPKwS3_(ptr noundef %0, ptr noundef %1) local_unnamed_addr #0 personality ptr @__gxx_personality_v0 {
  %3 = alloca %"class.boost::nowide::basic_stackstring", align 8
  %4 = alloca %"class.boost::nowide::basic_stackstring.0", align 8
  call void @llvm.lifetime.start.p0(i64 264, ptr nonnull %3) #5
  %5 = getelementptr inbounds nuw i8, ptr %3, i64 256
  store ptr null, ptr %5, align 8, !tbaa !3
  %.not.i.i = icmp eq ptr %0, null
  br i1 %.not.i.i, label %_ZN5boost6nowide17basic_stackstringIcwLm256EEC2EPKw.exit, label %.preheader.i.i

.preheader.i.i:                                   ; preds = %2, %.preheader.i.i
  %.0.i.i.i = phi ptr [ %7, %.preheader.i.i ], [ %0, %2 ]
  %6 = load i32, ptr %.0.i.i.i, align 4, !tbaa !8
  %.not.i.i.i = icmp eq i32 %6, 0
  %7 = getelementptr inbounds nuw i8, ptr %.0.i.i.i, i64 4
  br i1 %.not.i.i.i, label %_ZN5boost6nowide3utf6strlenIwEEmPKT_.exit.i.i, label %.preheader.i.i, !llvm.loop !10

_ZN5boost6nowide3utf6strlenIwEEmPKT_.exit.i.i:    ; preds = %.preheader.i.i
  %8 = ptrtoint ptr %.0.i.i.i to i64
  %9 = ptrtoint ptr %0 to i64
  %10 = sub i64 %8, %9
  %11 = getelementptr inbounds nuw i8, ptr %0, i64 %10
  %12 = call noundef ptr @_ZN5boost6nowide17basic_stackstringIcwLm256EE7convertEPKwS4_(ptr noundef nonnull align 8 dereferenceable(264) %3, ptr noundef nonnull %0, ptr noundef nonnull %11)
  br label %_ZN5boost6nowide17basic_stackstringIcwLm256EEC2EPKw.exit

_ZN5boost6nowide17basic_stackstringIcwLm256EEC2EPKw.exit: ; preds = %2, %_ZN5boost6nowide3utf6strlenIwEEmPKT_.exit.i.i
  call void @llvm.lifetime.start.p0(i64 24, ptr nonnull %4) #5
  %13 = getelementptr inbounds nuw i8, ptr %4, i64 16
  store ptr null, ptr %13, align 8, !tbaa !12
  %.not.i.i3 = icmp eq ptr %1, null
  br i1 %.not.i.i3, label %_ZN5boost6nowide17basic_stackstringIcwLm16EEC2EPKw.exit, label %.preheader.i.i4

.preheader.i.i4:                                  ; preds = %_ZN5boost6nowide17basic_stackstringIcwLm256EEC2EPKw.exit, %.preheader.i.i4
  %.0.i.i.i5 = phi ptr [ %15, %.preheader.i.i4 ], [ %1, %_ZN5boost6nowide17basic_stackstringIcwLm256EEC2EPKw.exit ]
  %14 = load i32, ptr %.0.i.i.i5, align 4, !tbaa !8
  %.not.i.i.i6 = icmp eq i32 %14, 0
  %15 = getelementptr inbounds nuw i8, ptr %.0.i.i.i5, i64 4
  br i1 %.not.i.i.i6, label %_ZN5boost6nowide3utf6strlenIwEEmPKT_.exit.i.i7, label %.preheader.i.i4, !llvm.loop !10

_ZN5boost6nowide3utf6strlenIwEEmPKT_.exit.i.i7:   ; preds = %.preheader.i.i4
  %16 = ptrtoint ptr %.0.i.i.i5 to i64
  %17 = ptrtoint ptr %1 to i64
  %18 = sub i64 %16, %17
  %19 = getelementptr inbounds nuw i8, ptr %1, i64 %18
  %20 = invoke noundef ptr @_ZN5boost6nowide17basic_stackstringIcwLm16EE7convertEPKwS4_(ptr noundef nonnull align 8 dereferenceable(24) %4, ptr noundef nonnull %1, ptr noundef nonnull %19)
          to label %_ZN5boost6nowide3utf6strlenIwEEmPKT_.exit.i.i7._ZN5boost6nowide17basic_stackstringIcwLm16EEC2EPKw.exit_crit_edge unwind label %32

_ZN5boost6nowide3utf6strlenIwEEmPKT_.exit.i.i7._ZN5boost6nowide17basic_stackstringIcwLm16EEC2EPKw.exit_crit_edge: ; preds = %_ZN5boost6nowide3utf6strlenIwEEmPKT_.exit.i.i7
  %.pre = load ptr, ptr %13, align 8, !tbaa !12
  br label %_ZN5boost6nowide17basic_stackstringIcwLm16EEC2EPKw.exit

_ZN5boost6nowide17basic_stackstringIcwLm16EEC2EPKw.exit: ; preds = %_ZN5boost6nowide3utf6strlenIwEEmPKT_.exit.i.i7._ZN5boost6nowide17basic_stackstringIcwLm16EEC2EPKw.exit_crit_edge, %_ZN5boost6nowide17basic_stackstringIcwLm256EEC2EPKw.exit
  %21 = phi ptr [ %.pre, %_ZN5boost6nowide3utf6strlenIwEEmPKT_.exit.i.i7._ZN5boost6nowide17basic_stackstringIcwLm16EEC2EPKw.exit_crit_edge ], [ null, %_ZN5boost6nowide17basic_stackstringIcwLm256EEC2EPKw.exit ]
  %22 = load ptr, ptr %5, align 8, !tbaa !3
  %23 = call noalias ptr @fopen(ptr noundef %22, ptr noundef %21)
  %24 = load ptr, ptr %13, align 8, !tbaa !12
  %25 = icmp eq ptr %24, %4
  %26 = icmp eq ptr %24, null
  %or.cond.i.i = or i1 %25, %26
  br i1 %or.cond.i.i, label %_ZN5boost6nowide17basic_stackstringIcwLm16EED2Ev.exit, label %27

27:                                               ; preds = %_ZN5boost6nowide17basic_stackstringIcwLm16EEC2EPKw.exit
  call void @_ZdaPv(ptr noundef nonnull %24) #6
  br label %_ZN5boost6nowide17basic_stackstringIcwLm16EED2Ev.exit

_ZN5boost6nowide17basic_stackstringIcwLm16EED2Ev.exit: ; preds = %_ZN5boost6nowide17basic_stackstringIcwLm16EEC2EPKw.exit, %27
  call void @llvm.lifetime.end.p0(i64 24, ptr nonnull %4) #5
  %28 = load ptr, ptr %5, align 8, !tbaa !3
  %29 = icmp eq ptr %28, %3
  %30 = icmp eq ptr %28, null
  %or.cond.i.i8 = or i1 %29, %30
  br i1 %or.cond.i.i8, label %_ZN5boost6nowide17basic_stackstringIcwLm256EED2Ev.exit, label %31

31:                                               ; preds = %_ZN5boost6nowide17basic_stackstringIcwLm16EED2Ev.exit
  call void @_ZdaPv(ptr noundef nonnull %28) #6
  br label %_ZN5boost6nowide17basic_stackstringIcwLm256EED2Ev.exit

_ZN5boost6nowide17basic_stackstringIcwLm256EED2Ev.exit: ; preds = %_ZN5boost6nowide17basic_stackstringIcwLm16EED2Ev.exit, %31
  call void @llvm.lifetime.end.p0(i64 264, ptr nonnull %3) #5
  ret ptr %23

32:                                               ; preds = %_ZN5boost6nowide3utf6strlenIwEEmPKT_.exit.i.i7
  %33 = landingpad { ptr, i32 }
          cleanup
  call void @llvm.lifetime.end.p0(i64 24, ptr nonnull %4) #5
  %34 = load ptr, ptr %5, align 8, !tbaa !3
  %35 = icmp eq ptr %34, %3
  %36 = icmp eq ptr %34, null
  %or.cond.i.i9 = or i1 %35, %36
  br i1 %or.cond.i.i9, label %_ZN5boost6nowide17basic_stackstringIcwLm256EED2Ev.exit10, label %37

37:                                               ; preds = %32
  call void @_ZdaPv(ptr noundef nonnull %34) #6
  br label %_ZN5boost6nowide17basic_stackstringIcwLm256EED2Ev.exit10

_ZN5boost6nowide17basic_stackstringIcwLm256EED2Ev.exit10: ; preds = %32, %37
  call void @llvm.lifetime.end.p0(i64 264, ptr nonnull %3) #5
  resume { ptr, i32 } %33
}